; Function Attrs: mustprogress uwtable
define void @_ZN6casadi12CvodesMemoryC2ERKNS_15CvodesInterfaceE(ptr noundef nonnull align 8 dereferenceable(568) %0, ptr noundef nonnull align 8 dereferenceable(2152) %1) unnamed_addr #3 align 2 {
  tail call void @_ZN6casadi14SundialsMemoryC2Ev(ptr noundef nonnull align 8 dereferenceable(524) %0)
  %3 = getelementptr inbounds i8, ptr %0, i64 528
  store ptr %1, ptr %3, align 8
  %4 = getelementptr inbounds i8, ptr %0, i64 536
  store ptr null, ptr %4, align 8
  %5 = getelementptr inbounds i8, ptr %0, i64 504
  store i32 0, ptr %5, align 8
  ret void
}